-----BEGIN RSA PRIVATE KEY-----
Proc-Type: 4,ENCRYPTED
DEK-Info: DES-EDE3-CBC,1ABB83DC0F378F57

oNwnJZDkTaRW7Ab+FAvKuqJeU8GGB98T1HWZYSrGAkSp/gDpbIc8VZ6nB+Ow5sWZ
fh4KKsCAucJf31nJJkZhDolETI+T09YB72jEq4l/aDUgwNC3sxziUXlMiYtclGGq
cb3Gojo5xmyGWej3yJ60lk6ZVvEDk5/4tgIZ++Hl12qqfzsF742ul1MNDntL/QWI
h04BlAnY8/SvtyJ5cX0NDyjOddFW+NKPg7LMAydJYZhtVHdl/ICDE9TBgiFMwn/V
ENzyxQt03ZFe541G8y/vfsjwUzQ++dI0jIsGN0hrkLKFU6rnEE+ZkB71laXdvwLF
mMWPL8mjq4FkyDPSo/j8vfLreRZqiLkYuY5lSIkq2j6xjL3rm3JzHksCGpG8KLyo
5KvHte/b9EH5/504gJmnTXHqKF1kekngtPHkGrWTlZWISkJBEMG1+JjyWhopf1D9
u1KtpEw4g0Q/AemXN1uEPTU5wezfwpO2621W/L8Q8fuhF5WfICHvxZStrJLHC4eb
06+/NtWrlKtLJN0crkIpHSLtZLAdgM5sur1VJoj4bYAjP3wFUEGI+/XBkHDcLlJu
xfBl+Yca9d8a/8d3HZCPzBeOqQ6cSUrDT4lj20NNmfZTX9E/IBdn8eW9pgm3ssUL
Mm6xDRIe+TnMIjKNoU0Pd7WK+q2dWP1iHKi2nHC8otNZnSqb/ado5AYwhixTreYS
cOxb8IQCMSJhYqtVtngccom2kbv441MRb093gxXbKRmb1GW1LN63cUeYvGtdOEQX
23a4cbgv2qpPW5qeg0hyL/peYOtIkP2W1m44xckr1AbAHk4g7ERmYQ==
-----END RSA PRIVATE KEY-----
-----BEGIN CERTIFICATE REQUEST-----
MIIB2jCCAUMCAQAwgZkxCzAJBgNVBAYTAk5MMRYwFAYDVQQIEw1Ob29yZC1Ib2xs
YW5kMRYwFAYDVQQHEw1TY2hpcGhvbC1Pb3N0MREwDwYDVQQKEwhNYXJrZXRYUzEP
MA0GA1UECxMGQ2xpZW50MRIwEAYDVQQDEwlsb2NhbGhvc3QxIjAgBgkqhkiG9w0B
CQEWE3NhbmRlckBtYXJrZXR4cy5jb20wgZ8wDQYJKoZIhvcNAQEBBQADgY0AMIGJ
AoGBALJAZbua6Xw9KbunewNYBIY4oPUGRjaZ5VGagW47igK0lAgUn0PITFcT96Ui
KkewV8lkTYtnlHVJogKknZR3opzOGZ+n7nQBsoWiEAj/cM1NLHvkc3aJS0jzf6dj
W86ZGT9zpSSVJUboznhWmrZgmbr9luLy4KSdKZa5I6+o4AArAgMBAAGgADANBgkq
hkiG9w0BAQQFAAOBgQCjRX0iRl4IG3fOWZcZiWD9tCj6zTux+hVc0bcS8Oz9Ninn
mRFrtWW7qKxB9A9hdy4v95K+LqC3BtLvYFUAjlHdw9mFheoxDhFbE517js+V3kt5
8RKLpOSEoPxb+QALFpC6UraV8gtIjLc/9iNS68DTe54qYjFBHwi7Hvh5JMRyKw==
-----END CERTIFICATE REQUEST-----
Certificate:
    Data:
        Version: 3 (0x2)
        Serial Number: 1 (0x1)
        Signature Algorithm: md5WithRSAEncryption
        Issuer: C=NL, ST=Noord-Holland, L=Schiphol-Oost, O=MarketXS, CN=localhost/Email=sander@marketxs.com
        Validity
            Not Before: May 29 11:21:48 2003 GMT
            Not After : May 28 11:21:48 2004 GMT
        Subject: C=NL, ST=Noord-Holland, L=Schiphol-Oost, O=MarketXS, OU=Client, CN=localhost/Email=sander@marketxs.com
        Subject Public Key Info:
            Public Key Algorithm: rsaEncryption
            RSA Public Key: (1024 bit)
                Modulus (1024 bit):
                    00:b2:40:65:bb:9a:e9:7c:3d:29:bb:a7:7b:03:58:
                    04:86:38:a0:f5:06:46:36:99:e5:51:9a:81:6e:3b:
                    8a:02:b4:94:08:14:9f:43:c8:4c:57:13:f7:a5:22:
                    2a:47:b0:57:c9:64:4d:8b:67:94:75:49:a2:02:a4:
                    9d:94:77:a2:9c:ce:19:9f:a7:ee:74:01:b2:85:a2:
                    10:08:ff:70:cd:4d:2c:7b:e4:73:76:89:4b:48:f3:
                    7f:a7:63:5b:ce:99:19:3f:73:a5:24:95:25:46:e8:
                    ce:78:56:9a:b6:60:99:ba:fd:96:e2:f2:e0:a4:9d:
                    29:96:b9:23:af:a8:e0:00:2b
                Exponent: 65537 (0x10001)
        X509v3 extensions:
            X509v3 Basic Constraints: 
                CA:FALSE
            Netscape Comment: 
                OpenSSL Generated Certificate
            X509v3 Subject Key Identifier: 
                6A:4B:91:78:89:CA:07:EE:8A:E0:CF:C2:52:E2:3E:8F:BC:5B:71:08
            X509v3 Authority Key Identifier: 
                keyid:BB:23:C2:8D:1A:9D:82:EA:F2:1B:12:9F:DD:94:30:96:84:86:97:B2
                DirName:/C=NL/ST=Noord-Holland/L=Schiphol-Oost/O=MarketXS/CN=localhost/Email=sander@marketxs.com
                serial:00

    Signature Algorithm: md5WithRSAEncryption
        84:26:f6:01:a9:78:e9:77:29:79:2a:1a:56:bd:0d:f5:bc:ff:
        c3:52:e7:76:fb:78:02:0e:a3:14:83:9c:3e:4f:e3:bb:64:46:
        95:de:8c:1d:72:d1:05:38:99:87:11:35:ec:09:d2:58:a8:11:
        85:1f:66:d5:c4:77:61:d6:86:f6:4b:d1:d6:d2:ff:85:ac:a8:
        d2:d7:c8:ac:9c:22:59:f4:cb:97:77:79:e2:48:2a:75:91:33:
        be:e0:0f:28:bf:7f:57:0d:ff:7b:23:de:48:2d:b7:c5:d7:3c:
        10:9f:ed:c0:97:bf:a4:fa:bc:32:94:2c:6d:bf:9b:43:ff:29:
        75:9a
-----BEGIN CERTIFICATE-----
MIIDrzCCAxigAwIBAgIBATANBgkqhkiG9w0BAQQFADCBiDELMAkGA1UEBhMCTkwx
FjAUBgNVBAgTDU5vb3JkLUhvbGxhbmQxFjAUBgNVBAcTDVNjaGlwaG9sLU9vc3Qx
ETAPBgNVBAoTCE1hcmtldFhTMRIwEAYDVQQDEwlsb2NhbGhvc3QxIjAgBgkqhkiG
9w0BCQEWE3NhbmRlckBtYXJrZXR4cy5jb20wHhcNMDMwNTI5MTEyMTQ4WhcNMDQw
NTI4MTEyMTQ4WjCBmTELMAkGA1UEBhMCTkwxFjAUBgNVBAgTDU5vb3JkLUhvbGxh
bmQxFjAUBgNVBAcTDVNjaGlwaG9sLU9vc3QxETAPBgNVBAoTCE1hcmtldFhTMQ8w
DQYDVQQLEwZDbGllbnQxEjAQBgNVBAMTCWxvY2FsaG9zdDEiMCAGCSqGSIb3DQEJ
ARYTc2FuZGVyQG1hcmtldHhzLmNvbTCBnzANBgkqhkiG9w0BAQEFAAOBjQAwgYkC
gYEAskBlu5rpfD0pu6d7A1gEhjig9QZGNpnlUZqBbjuKArSUCBSfQ8hMVxP3pSIq
R7BXyWRNi2eUdUmiAqSdlHeinM4Zn6fudAGyhaIQCP9wzU0se+RzdolLSPN/p2Nb
zpkZP3OlJJUlRujOeFaatmCZuv2W4vLgpJ0plrkjr6jgACsCAwEAAaOCARQwggEQ
MAkGA1UdEwQCMAAwLAYJYIZIAYb4QgENBB8WHU9wZW5TU0wgR2VuZXJhdGVkIENl
cnRpZmljYXRlMB0GA1UdDgQWBBRqS5F4icoH7orgz8JS4j6PvFtxCDCBtQYDVR0j
BIGtMIGqgBS7I8KNGp2C6vIbEp/dlDCWhIaXsqGBjqSBizCBiDELMAkGA1UEBhMC
TkwxFjAUBgNVBAgTDU5vb3JkLUhvbGxhbmQxFjAUBgNVBAcTDVNjaGlwaG9sLU9v
c3QxETAPBgNVBAoTCE1hcmtldFhTMRIwEAYDVQQDEwlsb2NhbGhvc3QxIjAgBgkq
hkiG9w0BCQEWE3NhbmRlckBtYXJrZXR4cy5jb22CAQAwDQYJKoZIhvcNAQEEBQAD
gYEAhCb2Aal46XcpeSoaVr0N9bz/w1Lndvt4Ag6jFIOcPk/ju2RGld6MHXLRBTiZ
hxE17AnSWKgRhR9m1cR3YdaG9kvR1tL/hayo0tfIrJwiWfTLl3d54kgqdZEzvuAP
KL9/Vw3/eyPeSC23xdc8EJ/twJe/pPq8MpQsbb+bQ/8pdZo=
-----END CERTIFICATE-----
