-----BEGIN RSA PRIVATE KEY-----
Proc-Type: 4,ENCRYPTED
DEK-Info: DES-EDE3-CBC,7B8EF45B26854987

HpNyJd4YZQja3POrMMXEuppRgO+B7+Q0mB8/g3R9FwqsgHMU60pFtr04WHEmuIlt
0wMWFZRiPBByhnGBRFMl4Z6bpiiK88hZBLV8Y2YHOgfnOqsMhiXH2YbzoglydKKf
bMAQZo6vctCaSEFuegjXDwOTZj4l/8anIntG/Mb2nDAqA+u4yIoPLz+Zqk3T+aNS
NgWd+tdgwJiQerhXGJcOQhTIOfmSdkVN72lcRH/EsXa6bqMLD3PkC1W434cD9jjL
fWG5ZXOUfv80myvPHZNz5u7YZ4R9N0iSfHXGzwFAIl7VIferYCtMJ+UKQ7iC77SB
pQRv4RHa/VjMhrow66Cp64Ons7HbXLkQnRz0wsdYMIrxOe7eee7kD6KdymGUrsOo
ejTGtlk0Kr+DZE0FnMDQTOfAVPvly6C+dGhh+8kUYg5P0TtcZ4ZNNJ+eMgBthz3z
VRHm7wsb7g32upZ6L8hGpXXJ7DihX5lcgm875YsCD5VqQA41e+KFo/JrttyQgSjs
1eyKtDYyz0Qy4ineMvW0Y6jbjtlGL7Rp8bVf1nKrPDARvEjNMqwanmQtCiNXa2K6
CSZYqBFsIOtofsUy769Jt9qQ55ZJHj7607xqt42nqeCIZNb2HxfpJTl5VSeZulZv
w4sVIeCsgdi8GGy/BD5Xdp8vVg7qEDW3DBrHddJzsVgr0wjVOps/Xs6iSKlbTcWD
+WVeBiuRAfooyYpF9iWfymXobo7xEz5ZVftrE19FdnNPJAIFv1lgTHr8XS8wqr93
AD3qb7EZHtOzROL6eX3UIWSgpciCKfcrGBy/KYqAWP9CoYodZ8jGAg==
-----END RSA PRIVATE KEY-----
-----BEGIN CERTIFICATE REQUEST-----
MIIB2jCCAUMCAQAwgZkxCzAJBgNVBAYTAk5MMRYwFAYDVQQIEw1Ob29yZC1Ib2xs
YW5kMRYwFAYDVQQHEw1TY2hpcGhvbC1Pb3N0MREwDwYDVQQKEwhNYXJrZXRYUzEP
MA0GA1UECxMGU2VydmVyMRIwEAYDVQQDEwlsb2NhbGhvc3QxIjAgBgkqhkiG9w0B
CQEWE3NhbmRlckBtYXJrZXR4cy5jb20wgZ8wDQYJKoZIhvcNAQEBBQADgY0AMIGJ
AoGBAMjUC3b68klv+1+9AjRX+eh/KwzMknixVKscrZ0Ba9+r0P2MAuAAFQNd1HVE
w8LN9L8rWWkeGB7+yf8bzhNtaO5KSusBfIaz85BuA3huSeZxAlaPcHBwReSO1Try
217Ym66XCIx9HAE2JqG78Bak541YeorgnkBGDAyzipCT/5xTAgMBAAGgADANBgkq
hkiG9w0BAQQFAAOBgQCTbI5f7vGhRLf0eFuyAUfsqOMQdoTcwndBZGMmCTzG8yO5
VyWmJE5ZDIVAe59JagKGLnEzFqx3NW4hBwMVbHD70uF46TOQ/3qHt2y2WfAK5C3h
Ko0IWHnUGTvRy335nKJahgjTIWbexiww0vbAX8r9iUXTXsbLWM1yQS8aGfTUmw==
-----END CERTIFICATE REQUEST-----
Certificate:
    Data:
        Version: 3 (0x2)
        Serial Number: 2 (0x2)
        Signature Algorithm: md5WithRSAEncryption
        Issuer: C=NL, ST=Noord-Holland, L=Schiphol-Oost, O=MarketXS, CN=localhost/Email=sander@marketxs.com
        Validity
            Not Before: May 29 11:23:35 2003 GMT
            Not After : May 28 11:23:35 2004 GMT
        Subject: C=NL, ST=Noord-Holland, L=Schiphol-Oost, O=MarketXS, OU=Server, CN=localhost/Email=sander@marketxs.com
        Subject Public Key Info:
            Public Key Algorithm: rsaEncryption
            RSA Public Key: (1024 bit)
                Modulus (1024 bit):
                    00:c8:d4:0b:76:fa:f2:49:6f:fb:5f:bd:02:34:57:
                    f9:e8:7f:2b:0c:cc:92:78:b1:54:ab:1c:ad:9d:01:
                    6b:df:ab:d0:fd:8c:02:e0:00:15:03:5d:d4:75:44:
                    c3:c2:cd:f4:bf:2b:59:69:1e:18:1e:fe:c9:ff:1b:
                    ce:13:6d:68:ee:4a:4a:eb:01:7c:86:b3:f3:90:6e:
                    03:78:6e:49:e6:71:02:56:8f:70:70:70:45:e4:8e:
                    d5:3a:f2:db:5e:d8:9b:ae:97:08:8c:7d:1c:01:36:
                    26:a1:bb:f0:16:a4:e7:8d:58:7a:8a:e0:9e:40:46:
                    0c:0c:b3:8a:90:93:ff:9c:53
                Exponent: 65537 (0x10001)
        X509v3 extensions:
            X509v3 Basic Constraints: 
                CA:FALSE
            Netscape Comment: 
                OpenSSL Generated Certificate
            X509v3 Subject Key Identifier: 
                96:F6:8E:F9:ED:E2:D6:71:B6:5E:B5:3D:00:1E:E5:AE:8D:40:C7:15
            X509v3 Authority Key Identifier: 
                keyid:BB:23:C2:8D:1A:9D:82:EA:F2:1B:12:9F:DD:94:30:96:84:86:97:B2
                DirName:/C=NL/ST=Noord-Holland/L=Schiphol-Oost/O=MarketXS/CN=localhost/Email=sander@marketxs.com
                serial:00

    Signature Algorithm: md5WithRSAEncryption
        39:bb:b0:50:fb:64:d7:3e:e9:5f:69:e0:8e:03:d0:8b:60:ff:
        2a:94:d9:a3:62:0c:23:39:50:96:0d:7d:8e:dd:17:f3:af:ef:
        bd:55:af:f8:52:13:87:38:e6:42:a8:a0:0c:c4:1e:1e:ca:66:
        57:e9:c3:a0:c8:97:04:eb:7d:99:19:46:71:e9:ca:5e:33:04:
        12:0b:2b:17:9f:06:59:84:d7:bd:6f:7f:8b:0e:39:78:ff:a9:
        65:93:60:ce:36:73:ef:56:1b:75:a1:cd:e5:97:53:fe:03:0c:
        7b:a5:9e:80:d9:70:d2:99:2d:3d:2f:6f:33:da:58:79:a5:72:
        bc:46
-----BEGIN CERTIFICATE-----
MIIDrzCCAxigAwIBAgIBAjANBgkqhkiG9w0BAQQFADCBiDELMAkGA1UEBhMCTkwx
FjAUBgNVBAgTDU5vb3JkLUhvbGxhbmQxFjAUBgNVBAcTDVNjaGlwaG9sLU9vc3Qx
ETAPBgNVBAoTCE1hcmtldFhTMRIwEAYDVQQDEwlsb2NhbGhvc3QxIjAgBgkqhkiG
9w0BCQEWE3NhbmRlckBtYXJrZXR4cy5jb20wHhcNMDMwNTI5MTEyMzM1WhcNMDQw
NTI4MTEyMzM1WjCBmTELMAkGA1UEBhMCTkwxFjAUBgNVBAgTDU5vb3JkLUhvbGxh
bmQxFjAUBgNVBAcTDVNjaGlwaG9sLU9vc3QxETAPBgNVBAoTCE1hcmtldFhTMQ8w
DQYDVQQLEwZTZXJ2ZXIxEjAQBgNVBAMTCWxvY2FsaG9zdDEiMCAGCSqGSIb3DQEJ
ARYTc2FuZGVyQG1hcmtldHhzLmNvbTCBnzANBgkqhkiG9w0BAQEFAAOBjQAwgYkC
gYEAyNQLdvrySW/7X70CNFf56H8rDMySeLFUqxytnQFr36vQ/YwC4AAVA13UdUTD
ws30vytZaR4YHv7J/xvOE21o7kpK6wF8hrPzkG4DeG5J5nECVo9wcHBF5I7VOvLb
XtibrpcIjH0cATYmobvwFqTnjVh6iuCeQEYMDLOKkJP/nFMCAwEAAaOCARQwggEQ
MAkGA1UdEwQCMAAwLAYJYIZIAYb4QgENBB8WHU9wZW5TU0wgR2VuZXJhdGVkIENl
cnRpZmljYXRlMB0GA1UdDgQWBBSW9o757eLWcbZetT0AHuWujUDHFTCBtQYDVR0j
BIGtMIGqgBS7I8KNGp2C6vIbEp/dlDCWhIaXsqGBjqSBizCBiDELMAkGA1UEBhMC
TkwxFjAUBgNVBAgTDU5vb3JkLUhvbGxhbmQxFjAUBgNVBAcTDVNjaGlwaG9sLU9v
c3QxETAPBgNVBAoTCE1hcmtldFhTMRIwEAYDVQQDEwlsb2NhbGhvc3QxIjAgBgkq
hkiG9w0BCQEWE3NhbmRlckBtYXJrZXR4cy5jb22CAQAwDQYJKoZIhvcNAQEEBQAD
gYEAObuwUPtk1z7pX2ngjgPQi2D/KpTZo2IMIzlQlg19jt0X86/vvVWv+FIThzjm
QqigDMQeHspmV+nDoMiXBOt9mRlGcenKXjMEEgsrF58GWYTXvW9/iw45eP+pZZNg
zjZz71YbdaHN5ZdT/gMMe6WegNlw0pktPS9vM9pYeaVyvEY=
-----END CERTIFICATE-----
